target datalayout = "e-m:e-p270:32:32-p271:32:32-p272:64:64-i64:64-i128:128-f80:128-n8:16:32:64-S128"
target triple = "x86_64-pc-linux-gnu"

%struct.expert_field = type { i32, i32 }
%struct._xmpp_attr_t = type { ptr, ptr, i32, i32, i8 }
%struct._xmpp_element_t = type { ptr, ptr, ptr, ptr, ptr, ptr, i32, i32, i8 }
%struct._xmpp_attr_info = type { ptr, ptr, i8, i8, ptr, ptr }

@.str.13 = private unnamed_addr constant [5 x i8] c"(%s)\00", align 1
@.str.18 = private unnamed_addr constant [7 x i8] c"%s: %s\00", align 1
@.str.20 = private unnamed_addr constant [3 x i8] c" [\00", align 1
@hf_xmpp_attribute = external global i32, align 4
@.str.21 = private unnamed_addr constant [2 x i8] c" \00", align 1
@.str.22 = private unnamed_addr constant [8 x i8] c"%s=\22%s\22\00", align 1
@ei_xmpp_required_attribute = external global %struct.expert_field, align 4
@.str.23 = private unnamed_addr constant [48 x i8] c"Required attribute \22%s\22 doesn't appear in \22%s\22.\00", align 1
@.str.24 = private unnamed_addr constant [2 x i8] c"]\00", align 1

; Function Attrs: null_pointer_is_valid sspstrong uwtable
define hidden ptr @xmpp_get_attr(ptr noundef %0, ptr noundef %1) #0 {
  %3 = alloca ptr, align 8
  %4 = alloca ptr, align 8
  %5 = alloca ptr, align 8
  store ptr %0, ptr %3, align 8
  store ptr %1, ptr %4, align 8
  call void @llvm.lifetime.start.p0(i64 8, ptr %5) #8
  %6 = load ptr, ptr %3, align 8
  %7 = getelementptr inbounds nuw %struct._xmpp_element_t, ptr %6, i32 0, i32 3
  %8 = load ptr, ptr %7, align 8
  %9 = load ptr, ptr %4, align 8
  %10 = call ptr @g_hash_table_lookup(ptr noundef %8, ptr noundef %9)
  store ptr %10, ptr %5, align 8
  %11 = load ptr, ptr %5, align 8
  %12 = icmp ne ptr %11, null
  br i1 %12, label %19, label %13

13:                                               ; preds = %2
  %14 = load ptr, ptr %3, align 8
  %15 = getelementptr inbounds nuw %struct._xmpp_element_t, ptr %14, i32 0, i32 3
  %16 = load ptr, ptr %15, align 8
  %17 = load ptr, ptr %4, align 8
  %18 = call ptr @g_hash_table_find(ptr noundef %16, ptr noundef @attr_find_pred, ptr noundef %17)
  store ptr %18, ptr %5, align 8
  br label %19

19:                                               ; preds = %13, %2
  %20 = load ptr, ptr %5, align 8
  %21 = icmp ne ptr %20, null
  br i1 %21, label %22, label %25

22:                                               ; preds = %19
  %23 = load ptr, ptr %5, align 8
  %24 = getelementptr inbounds nuw %struct._xmpp_attr_t, ptr %23, i32 0, i32 4
  store i8 1, ptr %24, align 8
  br label %25

25:                                               ; preds = %22, %19
  %26 = load ptr, ptr %5, align 8
  call void @llvm.lifetime.end.p0(i64 8, ptr %5) #8
  ret ptr %26
}

; Function Attrs: null_pointer_is_valid sspstrong uwtable
define hidden void @xmpp_display_attrs(ptr noundef %0, ptr noundef %1, ptr noundef %2, ptr noundef %3, ptr noundef %4, i32 noundef %5) #0 {
  %7 = alloca ptr, align 8
  %8 = alloca ptr, align 8
  %9 = alloca ptr, align 8
  %10 = alloca ptr, align 8
  %11 = alloca ptr, align 8
  %12 = alloca i32, align 4
  %13 = alloca ptr, align 8
  %14 = alloca ptr, align 8
  %15 = alloca i32, align 4
  %16 = alloca i8, align 1
  store ptr %0, ptr %7, align 8
  store ptr %1, ptr %8, align 8
  store ptr %2, ptr %9, align 8
  store ptr %3, ptr %10, align 8
  store ptr %4, ptr %11, align 8
  store i32 %5, ptr %12, align 4
  call void @llvm.lifetime.start.p0(i64 8, ptr %13) #8
  %17 = load ptr, ptr %7, align 8
  %18 = call ptr @proto_tree_get_parent(ptr noundef %17)
  store ptr %18, ptr %13, align 8
  call void @llvm.lifetime.start.p0(i64 8, ptr %14) #8
  call void @llvm.lifetime.start.p0(i64 4, ptr %15) #8
  call void @llvm.lifetime.start.p0(i64 1, ptr %16) #8
  store i8 0, ptr %16, align 1
  %19 = load ptr, ptr %8, align 8
  %20 = getelementptr inbounds nuw %struct._xmpp_element_t, ptr %19, i32 0, i32 1
  %21 = load ptr, ptr %20, align 8
  %22 = icmp ne ptr %21, null
  br i1 %22, label %23, label %28

23:                                               ; preds = %6
  %24 = load ptr, ptr %13, align 8
  %25 = load ptr, ptr %8, align 8
  %26 = getelementptr inbounds nuw %struct._xmpp_element_t, ptr %25, i32 0, i32 1
  %27 = load ptr, ptr %26, align 8
  call void (ptr, ptr, ...) @proto_item_append_text(ptr noundef %24, ptr noundef @.str.13, ptr noundef %27)
  br label %28

28:                                               ; preds = %23, %6
  %29 = load ptr, ptr %13, align 8
  call void (ptr, ptr, ...) @proto_item_append_text(ptr noundef %29, ptr noundef @.str.20)
  store i32 0, ptr %15, align 4
  br label %30

30:                                               ; preds = %260, %28
  %31 = load i32, ptr %15, align 4
  %32 = load i32, ptr %12, align 4
  %33 = icmp ult i32 %31, %32
  br i1 %33, label %34, label %37

34:                                               ; preds = %30
  %35 = load ptr, ptr %11, align 8
  %36 = icmp ne ptr %35, null
  br label %37

37:                                               ; preds = %34, %30
  %38 = phi i1 [ false, %30 ], [ %36, %34 ]
  br i1 %38, label %39, label %263

39:                                               ; preds = %37
  %40 = load ptr, ptr %8, align 8
  %41 = load ptr, ptr %11, align 8
  %42 = load i32, ptr %15, align 4
  %43 = zext i32 %42 to i64
  %44 = getelementptr %struct._xmpp_attr_info, ptr %41, i64 %43
  %45 = getelementptr inbounds nuw %struct._xmpp_attr_info, ptr %44, i32 0, i32 0
  %46 = load ptr, ptr %45, align 8
  %47 = call ptr @xmpp_get_attr(ptr noundef %40, ptr noundef %46)
  store ptr %47, ptr %14, align 8
  %48 = load ptr, ptr %14, align 8
  %49 = icmp ne ptr %48, null
  br i1 %49, label %50, label %180

50:                                               ; preds = %39
  %51 = load ptr, ptr %11, align 8
  %52 = load i32, ptr %15, align 4
  %53 = zext i32 %52 to i64
  %54 = getelementptr %struct._xmpp_attr_info, ptr %51, i64 %53
  %55 = getelementptr inbounds nuw %struct._xmpp_attr_info, ptr %54, i32 0, i32 1
  %56 = load ptr, ptr %55, align 8
  %57 = icmp ne ptr %56, null
  br i1 %57, label %58, label %110

58:                                               ; preds = %50
  %59 = load ptr, ptr %14, align 8
  %60 = getelementptr inbounds nuw %struct._xmpp_attr_t, ptr %59, i32 0, i32 1
  %61 = load ptr, ptr %60, align 8
  %62 = icmp ne ptr %61, null
  br i1 %62, label %63, label %89

63:                                               ; preds = %58
  %64 = load ptr, ptr %7, align 8
  %65 = load ptr, ptr %11, align 8
  %66 = load i32, ptr %15, align 4
  %67 = zext i32 %66 to i64
  %68 = getelementptr %struct._xmpp_attr_info, ptr %65, i64 %67
  %69 = getelementptr inbounds nuw %struct._xmpp_attr_info, ptr %68, i32 0, i32 1
  %70 = load ptr, ptr %69, align 8
  %71 = load i32, ptr %70, align 4
  %72 = load ptr, ptr %10, align 8
  %73 = load ptr, ptr %14, align 8
  %74 = getelementptr inbounds nuw %struct._xmpp_attr_t, ptr %73, i32 0, i32 2
  %75 = load i32, ptr %74, align 8
  %76 = load ptr, ptr %14, align 8
  %77 = getelementptr inbounds nuw %struct._xmpp_attr_t, ptr %76, i32 0, i32 3
  %78 = load i32, ptr %77, align 4
  %79 = load ptr, ptr %14, align 8
  %80 = getelementptr inbounds nuw %struct._xmpp_attr_t, ptr %79, i32 0, i32 0
  %81 = load ptr, ptr %80, align 8
  %82 = load ptr, ptr %14, align 8
  %83 = getelementptr inbounds nuw %struct._xmpp_attr_t, ptr %82, i32 0, i32 1
  %84 = load ptr, ptr %83, align 8
  %85 = load ptr, ptr %14, align 8
  %86 = getelementptr inbounds nuw %struct._xmpp_attr_t, ptr %85, i32 0, i32 0
  %87 = load ptr, ptr %86, align 8
  %88 = call ptr (ptr, i32, ptr, i32, i32, ptr, ptr, ...) @proto_tree_add_string_format(ptr noundef %64, i32 noundef %71, ptr noundef %72, i32 noundef %75, i32 noundef %78, ptr noundef %81, ptr noundef @.str.18, ptr noundef %84, ptr noundef %87)
  br label %109

89:                                               ; preds = %58
  %90 = load ptr, ptr %7, align 8
  %91 = load ptr, ptr %11, align 8
  %92 = load i32, ptr %15, align 4
  %93 = zext i32 %92 to i64
  %94 = getelementptr %struct._xmpp_attr_info, ptr %91, i64 %93
  %95 = getelementptr inbounds nuw %struct._xmpp_attr_info, ptr %94, i32 0, i32 1
  %96 = load ptr, ptr %95, align 8
  %97 = load i32, ptr %96, align 4
  %98 = load ptr, ptr %10, align 8
  %99 = load ptr, ptr %14, align 8
  %100 = getelementptr inbounds nuw %struct._xmpp_attr_t, ptr %99, i32 0, i32 2
  %101 = load i32, ptr %100, align 8
  %102 = load ptr, ptr %14, align 8
  %103 = getelementptr inbounds nuw %struct._xmpp_attr_t, ptr %102, i32 0, i32 3
  %104 = load i32, ptr %103, align 4
  %105 = load ptr, ptr %14, align 8
  %106 = getelementptr inbounds nuw %struct._xmpp_attr_t, ptr %105, i32 0, i32 0
  %107 = load ptr, ptr %106, align 8
  %108 = call ptr @proto_tree_add_string(ptr noundef %90, i32 noundef %97, ptr noundef %98, i32 noundef %101, i32 noundef %104, ptr noundef %107)
  br label %109

109:                                              ; preds = %89, %63
  br label %144

110:                                              ; preds = %50
  %111 = load ptr, ptr %7, align 8
  %112 = load i32, ptr @hf_xmpp_attribute, align 4
  %113 = load ptr, ptr %10, align 8
  %114 = load ptr, ptr %14, align 8
  %115 = getelementptr inbounds nuw %struct._xmpp_attr_t, ptr %114, i32 0, i32 2
  %116 = load i32, ptr %115, align 8
  %117 = load ptr, ptr %14, align 8
  %118 = getelementptr inbounds nuw %struct._xmpp_attr_t, ptr %117, i32 0, i32 3
  %119 = load i32, ptr %118, align 4
  %120 = load ptr, ptr %14, align 8
  %121 = getelementptr inbounds nuw %struct._xmpp_attr_t, ptr %120, i32 0, i32 0
  %122 = load ptr, ptr %121, align 8
  %123 = load ptr, ptr %14, align 8
  %124 = getelementptr inbounds nuw %struct._xmpp_attr_t, ptr %123, i32 0, i32 1
  %125 = load ptr, ptr %124, align 8
  %126 = icmp ne ptr %125, null
  br i1 %126, label %127, label %131

127:                                              ; preds = %110
  %128 = load ptr, ptr %14, align 8
  %129 = getelementptr inbounds nuw %struct._xmpp_attr_t, ptr %128, i32 0, i32 1
  %130 = load ptr, ptr %129, align 8
  br label %138

131:                                              ; preds = %110
  %132 = load ptr, ptr %11, align 8
  %133 = load i32, ptr %15, align 4
  %134 = zext i32 %133 to i64
  %135 = getelementptr %struct._xmpp_attr_info, ptr %132, i64 %134
  %136 = getelementptr inbounds nuw %struct._xmpp_attr_info, ptr %135, i32 0, i32 0
  %137 = load ptr, ptr %136, align 8
  br label %138

138:                                              ; preds = %131, %127
  %139 = phi ptr [ %130, %127 ], [ %137, %131 ]
  %140 = load ptr, ptr %14, align 8
  %141 = getelementptr inbounds nuw %struct._xmpp_attr_t, ptr %140, i32 0, i32 0
  %142 = load ptr, ptr %141, align 8
  %143 = call ptr (ptr, i32, ptr, i32, i32, ptr, ptr, ...) @proto_tree_add_string_format(ptr noundef %111, i32 noundef %112, ptr noundef %113, i32 noundef %116, i32 noundef %119, ptr noundef %122, ptr noundef @.str.18, ptr noundef %139, ptr noundef %142)
  br label %144

144:                                              ; preds = %138, %109
  %145 = load ptr, ptr %11, align 8
  %146 = load i32, ptr %15, align 4
  %147 = zext i32 %146 to i64
  %148 = getelementptr %struct._xmpp_attr_info, ptr %145, i64 %147
  %149 = getelementptr inbounds nuw %struct._xmpp_attr_info, ptr %148, i32 0, i32 3
  %150 = load i8, ptr %149, align 1, !range !6, !noundef !7
  %151 = trunc i8 %150 to i1
  br i1 %151, label %152, label %179

152:                                              ; preds = %144
  %153 = load i8, ptr %16, align 1, !range !6, !noundef !7
  %154 = trunc i8 %153 to i1
  br i1 %154, label %155, label %157

155:                                              ; preds = %152
  %156 = load ptr, ptr %13, align 8
  call void (ptr, ptr, ...) @proto_item_append_text(ptr noundef %156, ptr noundef @.str.21)
  br label %157

157:                                              ; preds = %155, %152
  %158 = load ptr, ptr %13, align 8
  %159 = load ptr, ptr %14, align 8
  %160 = getelementptr inbounds nuw %struct._xmpp_attr_t, ptr %159, i32 0, i32 1
  %161 = load ptr, ptr %160, align 8
  %162 = icmp ne ptr %161, null
  br i1 %162, label %163, label %167

163:                                              ; preds = %157
  %164 = load ptr, ptr %14, align 8
  %165 = getelementptr inbounds nuw %struct._xmpp_attr_t, ptr %164, i32 0, i32 1
  %166 = load ptr, ptr %165, align 8
  br label %174

167:                                              ; preds = %157
  %168 = load ptr, ptr %11, align 8
  %169 = load i32, ptr %15, align 4
  %170 = zext i32 %169 to i64
  %171 = getelementptr %struct._xmpp_attr_info, ptr %168, i64 %170
  %172 = getelementptr inbounds nuw %struct._xmpp_attr_info, ptr %171, i32 0, i32 0
  %173 = load ptr, ptr %172, align 8
  br label %174

174:                                              ; preds = %167, %163
  %175 = phi ptr [ %166, %163 ], [ %173, %167 ]
  %176 = load ptr, ptr %14, align 8
  %177 = getelementptr inbounds nuw %struct._xmpp_attr_t, ptr %176, i32 0, i32 0
  %178 = load ptr, ptr %177, align 8
  call void (ptr, ptr, ...) @proto_item_append_text(ptr noundef %158, ptr noundef @.str.22, ptr noundef %175, ptr noundef %178)
  store i8 1, ptr %16, align 1
  br label %179

179:                                              ; preds = %174, %144
  br label %202

180:                                              ; preds = %39
  %181 = load ptr, ptr %11, align 8
  %182 = load i32, ptr %15, align 4
  %183 = zext i32 %182 to i64
  %184 = getelementptr %struct._xmpp_attr_info, ptr %181, i64 %183
  %185 = getelementptr inbounds nuw %struct._xmpp_attr_info, ptr %184, i32 0, i32 2
  %186 = load i8, ptr %185, align 8, !range !6, !noundef !7
  %187 = trunc i8 %186 to i1
  br i1 %187, label %188, label %201

188:                                              ; preds = %180
  %189 = load ptr, ptr %9, align 8
  %190 = load ptr, ptr %13, align 8
  %191 = load ptr, ptr %11, align 8
  %192 = load i32, ptr %15, align 4
  %193 = zext i32 %192 to i64
  %194 = getelementptr %struct._xmpp_attr_info, ptr %191, i64 %193
  %195 = getelementptr inbounds nuw %struct._xmpp_attr_info, ptr %194, i32 0, i32 0
  %196 = load ptr, ptr %195, align 8
  %197 = load ptr, ptr %8, align 8
  %198 = getelementptr inbounds nuw %struct._xmpp_element_t, ptr %197, i32 0, i32 0
  %199 = load ptr, ptr %198, align 8
  %200 = call ptr (ptr, ptr, ptr, ptr, ...) @expert_add_info_format(ptr noundef %189, ptr noundef %190, ptr noundef @ei_xmpp_required_attribute, ptr noundef @.str.23, ptr noundef %196, ptr noundef %199)
  br label %201

201:                                              ; preds = %188, %180
  br label %202

202:                                              ; preds = %201, %179
  %203 = load ptr, ptr %11, align 8
  %204 = load i32, ptr %15, align 4
  %205 = zext i32 %204 to i64
  %206 = getelementptr %struct._xmpp_attr_info, ptr %203, i64 %205
  %207 = getelementptr inbounds nuw %struct._xmpp_attr_info, ptr %206, i32 0, i32 4
  %208 = load ptr, ptr %207, align 8
  %209 = icmp ne ptr %208, null
  br i1 %209, label %210, label %259

210:                                              ; preds = %202
  %211 = load ptr, ptr %14, align 8
  %212 = icmp ne ptr %211, null
  br i1 %212, label %213, label %237

213:                                              ; preds = %210
  %214 = load ptr, ptr %11, align 8
  %215 = load i32, ptr %15, align 4
  %216 = zext i32 %215 to i64
  %217 = getelementptr %struct._xmpp_attr_info, ptr %214, i64 %216
  %218 = getelementptr inbounds nuw %struct._xmpp_attr_info, ptr %217, i32 0, i32 4
  %219 = load ptr, ptr %218, align 8
  %220 = load ptr, ptr %9, align 8
  %221 = load ptr, ptr %13, align 8
  %222 = load ptr, ptr %11, align 8
  %223 = load i32, ptr %15, align 4
  %224 = zext i32 %223 to i64
  %225 = getelementptr %struct._xmpp_attr_info, ptr %222, i64 %224
  %226 = getelementptr inbounds nuw %struct._xmpp_attr_info, ptr %225, i32 0, i32 0
  %227 = load ptr, ptr %226, align 8
  %228 = load ptr, ptr %14, align 8
  %229 = getelementptr inbounds nuw %struct._xmpp_attr_t, ptr %228, i32 0, i32 0
  %230 = load ptr, ptr %229, align 8
  %231 = load ptr, ptr %11, align 8
  %232 = load i32, ptr %15, align 4
  %233 = zext i32 %232 to i64
  %234 = getelementptr %struct._xmpp_attr_info, ptr %231, i64 %233
  %235 = getelementptr inbounds nuw %struct._xmpp_attr_info, ptr %234, i32 0, i32 5
  %236 = load ptr, ptr %235, align 8
  call void %219(ptr noundef %220, ptr noundef %221, ptr noundef %227, ptr noundef %230, ptr noundef %236)
  br label %258

237:                                              ; preds = %210
  %238 = load ptr, ptr %11, align 8
  %239 = load i32, ptr %15, align 4
  %240 = zext i32 %239 to i64
  %241 = getelementptr %struct._xmpp_attr_info, ptr %238, i64 %240
  %242 = getelementptr inbounds nuw %struct._xmpp_attr_info, ptr %241, i32 0, i32 4
  %243 = load ptr, ptr %242, align 8
  %244 = load ptr, ptr %9, align 8
  %245 = load ptr, ptr %13, align 8
  %246 = load ptr, ptr %11, align 8
  %247 = load i32, ptr %15, align 4
  %248 = zext i32 %247 to i64
  %249 = getelementptr %struct._xmpp_attr_info, ptr %246, i64 %248
  %250 = getelementptr inbounds nuw %struct._xmpp_attr_info, ptr %249, i32 0, i32 0
  %251 = load ptr, ptr %250, align 8
  %252 = load ptr, ptr %11, align 8
  %253 = load i32, ptr %15, align 4
  %254 = zext i32 %253 to i64
  %255 = getelementptr %struct._xmpp_attr_info, ptr %252, i64 %254
  %256 = getelementptr inbounds nuw %struct._xmpp_attr_info, ptr %255, i32 0, i32 5
  %257 = load ptr, ptr %256, align 8
  call void %243(ptr noundef %244, ptr noundef %245, ptr noundef %251, ptr noundef null, ptr noundef %257)
  br label %258

258:                                              ; preds = %237, %213
  br label %259

259:                                              ; preds = %258, %202
  br label %260

260:                                              ; preds = %259
  %261 = load i32, ptr %15, align 4
  %262 = add i32 %261, 1
  store i32 %262, ptr %15, align 4
  br label %30, !llvm.loop !17

263:                                              ; preds = %37
  %264 = load ptr, ptr %13, align 8
  call void (ptr, ptr, ...) @proto_item_append_text(ptr noundef %264, ptr noundef @.str.24)
  %265 = load ptr, ptr %7, align 8
  %266 = load ptr, ptr %10, align 8
  %267 = load ptr, ptr %9, align 8
  %268 = load ptr, ptr %8, align 8
  call void @xmpp_unknown_attrs(ptr noundef %265, ptr noundef %266, ptr noundef %267, ptr noundef %268, i1 noundef zeroext false)
  call void @llvm.lifetime.end.p0(i64 1, ptr %16) #8
  call void @llvm.lifetime.end.p0(i64 4, ptr %15) #8
  call void @llvm.lifetime.end.p0(i64 8, ptr %14) #8
  call void @llvm.lifetime.end.p0(i64 8, ptr %13) #8
  ret void
}