; Function Attrs: null_pointer_is_valid sspstrong uwtable
define hidden void @xmpp_display_attrs(ptr noundef %0, ptr noundef readonly captures(none) %1, ptr noundef %2, ptr noundef %3, ptr noundef readonly captures(address_is_null) %4, i32 noundef %5) local_unnamed_addr #0 {
  %7 = tail call ptr @proto_tree_get_parent(ptr noundef %0)
  %8 = getelementptr inbounds nuw i8, ptr %1, i64 8
  %9 = load ptr, ptr %8, align 8
  %.not = icmp eq ptr %9, null
  br i1 %.not, label %11, label %10

10:                                               ; preds = %6
  tail call void (ptr, ptr, ...) @proto_item_append_text(ptr noundef %7, ptr noundef nonnull @.str.13, ptr noundef nonnull %9)
  br label %11

11:                                               ; preds = %10, %6
  tail call void (ptr, ptr, ...) @proto_item_append_text(ptr noundef %7, ptr noundef nonnull @.str.20)
  %12 = icmp ne ptr %4, null
  %13 = icmp ne i32 %5, 0
  %14 = and i1 %12, %13
  br i1 %14, label %.lr.ph, label %._crit_edge

.lr.ph:                                           ; preds = %11
  %15 = getelementptr inbounds nuw i8, ptr %1, i64 24
  %16 = zext i32 %5 to i64
  br label %17

17:                                               ; preds = %.lr.ph, %87
  %indvars.iv = phi i64 [ 0, %.lr.ph ], [ %indvars.iv.next, %87 ]
  %.0106 = phi i1 [ false, %.lr.ph ], [ %.1, %87 ]
  %18 = getelementptr %struct._xmpp_attr_info, ptr %4, i64 %indvars.iv
  %19 = load ptr, ptr %18, align 8
  %20 = load ptr, ptr %15, align 8
  %21 = tail call ptr @g_hash_table_lookup(ptr noundef %20, ptr noundef %19)
  %.not.i = icmp eq ptr %21, null
  br i1 %.not.i, label %22, label %25

22:                                               ; preds = %17
  %23 = load ptr, ptr %15, align 8
  %24 = tail call ptr @g_hash_table_find(ptr noundef %23, ptr noundef nonnull @attr_find_pred, ptr noundef %19)
  %.not9.i = icmp eq ptr %24, null
  br i1 %.not9.i, label %70, label %25

25:                                               ; preds = %22, %17
  %.012.i = phi ptr [ %24, %22 ], [ %21, %17 ]
  %26 = getelementptr inbounds nuw i8, ptr %.012.i, i64 24
  store i8 1, ptr %26, align 8
  %27 = getelementptr inbounds nuw i8, ptr %18, i64 8
  %28 = load ptr, ptr %27, align 8
  %.not94 = icmp eq ptr %28, null
  br i1 %.not94, label %42, label %29

29:                                               ; preds = %25
  %30 = getelementptr inbounds nuw i8, ptr %.012.i, i64 8
  %31 = load ptr, ptr %30, align 8
  %.not96 = icmp eq ptr %31, null
  %32 = load i32, ptr %28, align 4
  %33 = getelementptr inbounds nuw i8, ptr %.012.i, i64 16
  %34 = load i32, ptr %33, align 8
  %35 = getelementptr inbounds nuw i8, ptr %.012.i, i64 20
  %36 = load i32, ptr %35, align 4
  %37 = load ptr, ptr %.012.i, align 8
  br i1 %.not96, label %40, label %38

38:                                               ; preds = %29
  %39 = tail call ptr (ptr, i32, ptr, i32, i32, ptr, ptr, ...) @proto_tree_add_string_format(ptr noundef %0, i32 noundef %32, ptr noundef %3, i32 noundef %34, i32 noundef %36, ptr noundef %37, ptr noundef nonnull @.str.18, ptr noundef nonnull %31, ptr noundef %37)
  br label %56

40:                                               ; preds = %29
  %41 = tail call ptr @proto_tree_add_string(ptr noundef %0, i32 noundef %32, ptr noundef %3, i32 noundef %34, i32 noundef %36, ptr noundef %37)
  br label %56

42:                                               ; preds = %25
  %43 = load i32, ptr @hf_xmpp_attribute, align 4
  %44 = getelementptr inbounds nuw i8, ptr %.012.i, i64 16
  %45 = load i32, ptr %44, align 8
  %46 = getelementptr inbounds nuw i8, ptr %.012.i, i64 20
  %47 = load i32, ptr %46, align 4
  %48 = load ptr, ptr %.012.i, align 8
  %49 = getelementptr inbounds nuw i8, ptr %.012.i, i64 8
  %50 = load ptr, ptr %49, align 8
  %.not95 = icmp eq ptr %50, null
  br i1 %.not95, label %51, label %53

51:                                               ; preds = %42
  %52 = load ptr, ptr %18, align 8
  br label %53

53:                                               ; preds = %42, %51
  %54 = phi ptr [ %52, %51 ], [ %50, %42 ]
  %55 = tail call ptr (ptr, i32, ptr, i32, i32, ptr, ptr, ...) @proto_tree_add_string_format(ptr noundef %0, i32 noundef %43, ptr noundef %3, i32 noundef %45, i32 noundef %47, ptr noundef %48, ptr noundef nonnull @.str.18, ptr noundef %54, ptr noundef %48)
  br label %56

56:                                               ; preds = %38, %40, %53
  %57 = getelementptr inbounds nuw i8, ptr %18, i64 17
  %58 = load i8, ptr %57, align 1, !range !6, !noundef !7
  %59 = trunc nuw i8 %58 to i1
  br i1 %59, label %60, label %78

60:                                               ; preds = %56
  br i1 %.0106, label %61, label %62

61:                                               ; preds = %60
  tail call void (ptr, ptr, ...) @proto_item_append_text(ptr noundef %7, ptr noundef nonnull @.str.21)
  br label %62

62:                                               ; preds = %61, %60
  %63 = getelementptr inbounds nuw i8, ptr %.012.i, i64 8
  %64 = load ptr, ptr %63, align 8
  %.not97 = icmp eq ptr %64, null
  br i1 %.not97, label %65, label %67

65:                                               ; preds = %62
  %66 = load ptr, ptr %18, align 8
  br label %67

67:                                               ; preds = %62, %65
  %68 = phi ptr [ %66, %65 ], [ %64, %62 ]
  %69 = load ptr, ptr %.012.i, align 8
  tail call void (ptr, ptr, ...) @proto_item_append_text(ptr noundef %7, ptr noundef nonnull @.str.22, ptr noundef %68, ptr noundef %69)
  br label %78

70:                                               ; preds = %22
  %71 = getelementptr inbounds nuw i8, ptr %18, i64 16
  %72 = load i8, ptr %71, align 8, !range !6, !noundef !7
  %73 = trunc nuw i8 %72 to i1
  br i1 %73, label %74, label %78

74:                                               ; preds = %70
  %75 = load ptr, ptr %18, align 8
  %76 = load ptr, ptr %1, align 8
  %77 = tail call ptr (ptr, ptr, ptr, ptr, ...) @expert_add_info_format(ptr noundef %2, ptr noundef %7, ptr noundef nonnull @ei_xmpp_required_attribute, ptr noundef nonnull @.str.23, ptr noundef %75, ptr noundef %76)
  br label %78

78:                                               ; preds = %70, %74, %56, %67
  %.not93103 = phi i1 [ false, %67 ], [ false, %56 ], [ true, %74 ], [ true, %70 ]
  %.013.i101 = phi ptr [ %.012.i, %67 ], [ %.012.i, %56 ], [ null, %74 ], [ null, %70 ]
  %.1 = phi i1 [ true, %67 ], [ %.0106, %56 ], [ %.0106, %74 ], [ %.0106, %70 ]
  %79 = getelementptr inbounds nuw i8, ptr %18, i64 24
  %80 = load ptr, ptr %79, align 8
  %.not98 = icmp eq ptr %80, null
  br i1 %.not98, label %87, label %81

81:                                               ; preds = %78
  %82 = load ptr, ptr %18, align 8
  br i1 %.not93103, label %.sink.split, label %83

83:                                               ; preds = %81
  %84 = load ptr, ptr %.013.i101, align 8
  br label %.sink.split

.sink.split:                                      ; preds = %81, %83
  %.sink = phi ptr [ %84, %83 ], [ null, %81 ]
  %85 = getelementptr inbounds nuw i8, ptr %18, i64 32
  %86 = load ptr, ptr %85, align 8
  tail call void %80(ptr noundef %2, ptr noundef %7, ptr noundef %82, ptr noundef %.sink, ptr noundef %86)
  br label %87

87:                                               ; preds = %.sink.split, %78
  %indvars.iv.next = add nuw nsw i64 %indvars.iv, 1
  %88 = icmp samesign ult i64 %indvars.iv.next, %16
  br i1 %88, label %17, label %._crit_edge, !llvm.loop !15

._crit_edge:                                      ; preds = %87, %11
  tail call void (ptr, ptr, ...) @proto_item_append_text(ptr noundef %7, ptr noundef nonnull @.str.24)
  tail call fastcc void @xmpp_unknown_attrs(ptr noundef %0, ptr noundef %3, ptr noundef %2, ptr noundef %1, i1 noundef zeroext false)
  ret void
}